target datalayout = "e-m:e-p270:32:32-p271:32:32-p272:64:64-i64:64-i128:128-f80:128-n8:16:32:64-S128"
target triple = "x86_64-pc-linux-gnu"

%struct.DirectoryMethodData = type { %struct.WalWriteMethod, ptr }
%struct.WalWriteMethod = type { ptr, i32, i32, i8, ptr, i32 }
%struct.DirectoryMethodFile = type { %struct.Walfile, i32, ptr, ptr, ptr }
%struct.Walfile = type { ptr, i64, ptr }

@.str.3 = private unnamed_addr constant [6 x i8] c"%s/%s\00", align 1
@.str.5 = private unnamed_addr constant [39 x i8] c"could not rename file \22%s\22 to \22%s\22: %m\00", align 1
@.str.6 = private unnamed_addr constant [7 x i8] c"%s%s%s\00", align 1
@.str.7 = private unnamed_addr constant [4 x i8] c".gz\00", align 1
@.str.8 = private unnamed_addr constant [5 x i8] c".lz4\00", align 1
@.str.9 = private unnamed_addr constant [1 x i8] zeroinitializer, align 1

; Function Attrs: nounwind uwtable
define internal ptr @dir_get_file_name(ptr noundef %0, ptr noundef %1, ptr noundef %2) #0 {
  %4 = alloca ptr, align 8
  %5 = alloca ptr, align 8
  %6 = alloca ptr, align 8
  %7 = alloca ptr, align 8
  store ptr %0, ptr %4, align 8
  store ptr %1, ptr %5, align 8
  store ptr %2, ptr %6, align 8
  call void @llvm.lifetime.start.p0(i64 8, ptr %7) #9
  %8 = call ptr @pg_malloc0(i64 noundef 1024)
  store ptr %8, ptr %7, align 8
  %9 = load ptr, ptr %7, align 8
  %10 = load ptr, ptr %5, align 8
  %11 = load ptr, ptr %4, align 8
  %12 = getelementptr inbounds nuw %struct.WalWriteMethod, ptr %11, i32 0, i32 1
  %13 = load i32, ptr %12, align 8
  %14 = icmp eq i32 %13, 1
  br i1 %14, label %15, label %16

15:                                               ; preds = %3
  br label %22

16:                                               ; preds = %3
  %17 = load ptr, ptr %4, align 8
  %18 = getelementptr inbounds nuw %struct.WalWriteMethod, ptr %17, i32 0, i32 1
  %19 = load i32, ptr %18, align 8
  %20 = icmp eq i32 %19, 2
  %21 = select i1 %20, ptr @.str.8, ptr @.str.9
  br label %22

22:                                               ; preds = %16, %15
  %23 = phi ptr [ @.str.7, %15 ], [ %21, %16 ]
  %24 = load ptr, ptr %6, align 8
  %25 = icmp ne ptr %24, null
  br i1 %25, label %26, label %28

26:                                               ; preds = %22
  %27 = load ptr, ptr %6, align 8
  br label %29

28:                                               ; preds = %22
  br label %29

29:                                               ; preds = %28, %26
  %30 = phi ptr [ %27, %26 ], [ @.str.9, %28 ]
  %31 = call i32 (ptr, i64, ptr, ...) @pg_snprintf(ptr noundef %9, i64 noundef 1024, ptr noundef @.str.6, ptr noundef %10, ptr noundef %23, ptr noundef %30)
  %32 = load ptr, ptr %7, align 8
  call void @llvm.lifetime.end.p0(i64 8, ptr %7) #9
  ret ptr %32
}

; Function Attrs: nounwind uwtable
define internal i32 @dir_close(ptr noundef %0, i32 noundef %1) #0 {
  %3 = alloca ptr, align 8
  %4 = alloca i32, align 4
  %5 = alloca i32, align 4
  %6 = alloca ptr, align 8
  %7 = alloca ptr, align 8
  %8 = alloca [1024 x i8], align 16
  %9 = alloca [1024 x i8], align 16
  %10 = alloca ptr, align 8
  %11 = alloca ptr, align 8
  %12 = alloca ptr, align 8
  store ptr %0, ptr %3, align 8
  store i32 %1, ptr %4, align 4
  call void @llvm.lifetime.start.p0(i64 4, ptr %5) #9
  call void @llvm.lifetime.start.p0(i64 8, ptr %6) #9
  %13 = load ptr, ptr %3, align 8
  store ptr %13, ptr %6, align 8
  call void @llvm.lifetime.start.p0(i64 8, ptr %7) #9
  %14 = load ptr, ptr %3, align 8
  %15 = getelementptr inbounds nuw %struct.Walfile, ptr %14, i32 0, i32 0
  %16 = load ptr, ptr %15, align 8
  store ptr %16, ptr %7, align 8
  call void @llvm.lifetime.start.p0(i64 1024, ptr %8) #9
  call void @llvm.lifetime.start.p0(i64 1024, ptr %9) #9
  %17 = load ptr, ptr %3, align 8
  %18 = getelementptr inbounds nuw %struct.Walfile, ptr %17, i32 0, i32 0
  %19 = load ptr, ptr %18, align 8
  %20 = getelementptr inbounds nuw %struct.WalWriteMethod, ptr %19, i32 0, i32 4
  store ptr null, ptr %20, align 8
  %21 = load ptr, ptr %3, align 8
  %22 = getelementptr inbounds nuw %struct.Walfile, ptr %21, i32 0, i32 0
  %23 = load ptr, ptr %22, align 8
  %24 = getelementptr inbounds nuw %struct.WalWriteMethod, ptr %23, i32 0, i32 5
  store i32 0, ptr %24, align 8
  %25 = load ptr, ptr %3, align 8
  %26 = getelementptr inbounds nuw %struct.Walfile, ptr %25, i32 0, i32 0
  %27 = load ptr, ptr %26, align 8
  %28 = getelementptr inbounds nuw %struct.WalWriteMethod, ptr %27, i32 0, i32 1
  %29 = load i32, ptr %28, align 8
  %30 = icmp eq i32 %29, 1
  br i1 %30, label %31, label %37

31:                                               ; preds = %2
  %32 = call ptr @__errno_location() #11
  store i32 0, ptr %32, align 4
  %33 = load ptr, ptr %6, align 8
  %34 = getelementptr inbounds nuw %struct.DirectoryMethodFile, ptr %33, i32 0, i32 4
  %35 = load ptr, ptr %34, align 8
  %36 = call i32 @gzclose(ptr noundef %35)
  store i32 %36, ptr %5, align 4
  br label %42

37:                                               ; preds = %2
  %38 = load ptr, ptr %6, align 8
  %39 = getelementptr inbounds nuw %struct.DirectoryMethodFile, ptr %38, i32 0, i32 1
  %40 = load i32, ptr %39, align 8
  %41 = call i32 @close(i32 noundef %40)
  store i32 %41, ptr %5, align 4
  br label %42

42:                                               ; preds = %37, %31
  %43 = load i32, ptr %5, align 4
  %44 = icmp eq i32 %43, 0
  br i1 %44, label %45, label %154

45:                                               ; preds = %42
  %46 = load i32, ptr %4, align 4
  %47 = icmp eq i32 %46, 0
  br i1 %47, label %48, label %107

48:                                               ; preds = %45
  %49 = load ptr, ptr %6, align 8
  %50 = getelementptr inbounds nuw %struct.DirectoryMethodFile, ptr %49, i32 0, i32 3
  %51 = load ptr, ptr %50, align 8
  %52 = icmp ne ptr %51, null
  br i1 %52, label %53, label %107

53:                                               ; preds = %48
  call void @llvm.lifetime.start.p0(i64 8, ptr %10) #9
  call void @llvm.lifetime.start.p0(i64 8, ptr %11) #9
  %54 = load ptr, ptr %3, align 8
  %55 = getelementptr inbounds nuw %struct.Walfile, ptr %54, i32 0, i32 0
  %56 = load ptr, ptr %55, align 8
  %57 = load ptr, ptr %6, align 8
  %58 = getelementptr inbounds nuw %struct.DirectoryMethodFile, ptr %57, i32 0, i32 0
  %59 = getelementptr inbounds nuw %struct.Walfile, ptr %58, i32 0, i32 2
  %60 = load ptr, ptr %59, align 8
  %61 = load ptr, ptr %6, align 8
  %62 = getelementptr inbounds nuw %struct.DirectoryMethodFile, ptr %61, i32 0, i32 3
  %63 = load ptr, ptr %62, align 8
  %64 = call ptr @dir_get_file_name(ptr noundef %56, ptr noundef %60, ptr noundef %63)
  store ptr %64, ptr %10, align 8
  %65 = getelementptr inbounds [1024 x i8], ptr %8, i64 0, i64 0
  %66 = load ptr, ptr %7, align 8
  %67 = getelementptr inbounds nuw %struct.DirectoryMethodData, ptr %66, i32 0, i32 1
  %68 = load ptr, ptr %67, align 8
  %69 = load ptr, ptr %10, align 8
  %70 = call i32 (ptr, i64, ptr, ...) @pg_snprintf(ptr noundef %65, i64 noundef 1024, ptr noundef @.str.3, ptr noundef %68, ptr noundef %69)
  %71 = load ptr, ptr %10, align 8
  call void @pg_free(ptr noundef %71)
  %72 = load ptr, ptr %3, align 8
  %73 = getelementptr inbounds nuw %struct.Walfile, ptr %72, i32 0, i32 0
  %74 = load ptr, ptr %73, align 8
  %75 = load ptr, ptr %6, align 8
  %76 = getelementptr inbounds nuw %struct.DirectoryMethodFile, ptr %75, i32 0, i32 0
  %77 = getelementptr inbounds nuw %struct.Walfile, ptr %76, i32 0, i32 2
  %78 = load ptr, ptr %77, align 8
  %79 = call ptr @dir_get_file_name(ptr noundef %74, ptr noundef %78, ptr noundef null)
  store ptr %79, ptr %11, align 8
  %80 = getelementptr inbounds [1024 x i8], ptr %9, i64 0, i64 0
  %81 = load ptr, ptr %7, align 8
  %82 = getelementptr inbounds nuw %struct.DirectoryMethodData, ptr %81, i32 0, i32 1
  %83 = load ptr, ptr %82, align 8
  %84 = load ptr, ptr %11, align 8
  %85 = call i32 (ptr, i64, ptr, ...) @pg_snprintf(ptr noundef %80, i64 noundef 1024, ptr noundef @.str.3, ptr noundef %83, ptr noundef %84)
  %86 = load ptr, ptr %11, align 8
  call void @pg_free(ptr noundef %86)
  %87 = load ptr, ptr %3, align 8
  %88 = getelementptr inbounds nuw %struct.Walfile, ptr %87, i32 0, i32 0
  %89 = load ptr, ptr %88, align 8
  %90 = getelementptr inbounds nuw %struct.WalWriteMethod, ptr %89, i32 0, i32 3
  %91 = load i8, ptr %90, align 8, !range !4, !noundef !5
  %92 = trunc i8 %91 to i1
  br i1 %92, label %93, label %97

93:                                               ; preds = %53
  %94 = getelementptr inbounds [1024 x i8], ptr %8, i64 0, i64 0
  %95 = getelementptr inbounds [1024 x i8], ptr %9, i64 0, i64 0
  %96 = call i32 @durable_rename(ptr noundef %94, ptr noundef %95)
  store i32 %96, ptr %5, align 4
  br label %106

97:                                               ; preds = %53
  %98 = getelementptr inbounds [1024 x i8], ptr %8, i64 0, i64 0
  %99 = getelementptr inbounds [1024 x i8], ptr %9, i64 0, i64 0
  %100 = call i32 @rename(ptr noundef %98, ptr noundef %99) #9
  %101 = icmp ne i32 %100, 0
  br i1 %101, label %102, label %105

102:                                              ; preds = %97
  %103 = getelementptr inbounds [1024 x i8], ptr %8, i64 0, i64 0
  %104 = getelementptr inbounds [1024 x i8], ptr %9, i64 0, i64 0
  call void (i32, i32, ptr, ...) @pg_log_generic(i32 noundef 4, i32 noundef 0, ptr noundef @.str.5, ptr noundef %103, ptr noundef %104)
  store i32 -1, ptr %5, align 4
  br label %105

105:                                              ; preds = %102, %97
  br label %106

106:                                              ; preds = %105, %93
  call void @llvm.lifetime.end.p0(i64 8, ptr %11) #9
  call void @llvm.lifetime.end.p0(i64 8, ptr %10) #9
  br label %153

107:                                              ; preds = %48, %45
  %108 = load i32, ptr %4, align 4
  %109 = icmp eq i32 %108, 1
  br i1 %109, label %110, label %131

110:                                              ; preds = %107
  call void @llvm.lifetime.start.p0(i64 8, ptr %12) #9
  %111 = load ptr, ptr %3, align 8
  %112 = getelementptr inbounds nuw %struct.Walfile, ptr %111, i32 0, i32 0
  %113 = load ptr, ptr %112, align 8
  %114 = load ptr, ptr %6, align 8
  %115 = getelementptr inbounds nuw %struct.DirectoryMethodFile, ptr %114, i32 0, i32 0
  %116 = getelementptr inbounds nuw %struct.Walfile, ptr %115, i32 0, i32 2
  %117 = load ptr, ptr %116, align 8
  %118 = load ptr, ptr %6, align 8
  %119 = getelementptr inbounds nuw %struct.DirectoryMethodFile, ptr %118, i32 0, i32 3
  %120 = load ptr, ptr %119, align 8
  %121 = call ptr @dir_get_file_name(ptr noundef %113, ptr noundef %117, ptr noundef %120)
  store ptr %121, ptr %12, align 8
  %122 = getelementptr inbounds [1024 x i8], ptr %8, i64 0, i64 0
  %123 = load ptr, ptr %7, align 8
  %124 = getelementptr inbounds nuw %struct.DirectoryMethodData, ptr %123, i32 0, i32 1
  %125 = load ptr, ptr %124, align 8
  %126 = load ptr, ptr %12, align 8
  %127 = call i32 (ptr, i64, ptr, ...) @pg_snprintf(ptr noundef %122, i64 noundef 1024, ptr noundef @.str.3, ptr noundef %125, ptr noundef %126)
  %128 = load ptr, ptr %12, align 8
  call void @pg_free(ptr noundef %128)
  %129 = getelementptr inbounds [1024 x i8], ptr %8, i64 0, i64 0
  %130 = call i32 @unlink(ptr noundef %129) #9
  store i32 %130, ptr %5, align 4
  call void @llvm.lifetime.end.p0(i64 8, ptr %12) #9
  br label %152

131:                                              ; preds = %107
  %132 = load ptr, ptr %3, align 8
  %133 = getelementptr inbounds nuw %struct.Walfile, ptr %132, i32 0, i32 0
  %134 = load ptr, ptr %133, align 8
  %135 = getelementptr inbounds nuw %struct.WalWriteMethod, ptr %134, i32 0, i32 3
  %136 = load i8, ptr %135, align 8, !range !4, !noundef !5
  %137 = trunc i8 %136 to i1
  br i1 %137, label %138, label %151

138:                                              ; preds = %131
  %139 = load ptr, ptr %6, align 8
  %140 = getelementptr inbounds nuw %struct.DirectoryMethodFile, ptr %139, i32 0, i32 2
  %141 = load ptr, ptr %140, align 8
  %142 = call i32 @fsync_fname(ptr noundef %141, i1 noundef zeroext false)
  store i32 %142, ptr %5, align 4
  %143 = load i32, ptr %5, align 4
  %144 = icmp eq i32 %143, 0
  br i1 %144, label %145, label %150

145:                                              ; preds = %138
  %146 = load ptr, ptr %6, align 8
  %147 = getelementptr inbounds nuw %struct.DirectoryMethodFile, ptr %146, i32 0, i32 2
  %148 = load ptr, ptr %147, align 8
  %149 = call i32 @fsync_parent_path(ptr noundef %148)
  store i32 %149, ptr %5, align 4
  br label %150

150:                                              ; preds = %145, %138
  br label %151

151:                                              ; preds = %150, %131
  br label %152

152:                                              ; preds = %151, %110
  br label %153

153:                                              ; preds = %152, %106
  br label %154

154:                                              ; preds = %153, %42
  %155 = load i32, ptr %5, align 4
  %156 = icmp ne i32 %155, 0
  br i1 %156, label %157, label %164

157:                                              ; preds = %154
  %158 = call ptr @__errno_location() #11
  %159 = load i32, ptr %158, align 4
  %160 = load ptr, ptr %3, align 8
  %161 = getelementptr inbounds nuw %struct.Walfile, ptr %160, i32 0, i32 0
  %162 = load ptr, ptr %161, align 8
  %163 = getelementptr inbounds nuw %struct.WalWriteMethod, ptr %162, i32 0, i32 5
  store i32 %159, ptr %163, align 8
  br label %164

164:                                              ; preds = %157, %154
  %165 = load ptr, ptr %6, align 8
  %166 = getelementptr inbounds nuw %struct.DirectoryMethodFile, ptr %165, i32 0, i32 0
  %167 = getelementptr inbounds nuw %struct.Walfile, ptr %166, i32 0, i32 2
  %168 = load ptr, ptr %167, align 8
  call void @pg_free(ptr noundef %168)
  %169 = load ptr, ptr %6, align 8
  %170 = getelementptr inbounds nuw %struct.DirectoryMethodFile, ptr %169, i32 0, i32 2
  %171 = load ptr, ptr %170, align 8
  call void @pg_free(ptr noundef %171)
  %172 = load ptr, ptr %6, align 8
  %173 = getelementptr inbounds nuw %struct.DirectoryMethodFile, ptr %172, i32 0, i32 3
  %174 = load ptr, ptr %173, align 8
  call void @pg_free(ptr noundef %174)
  %175 = load ptr, ptr %6, align 8
  call void @pg_free(ptr noundef %175)
  %176 = load i32, ptr %5, align 4
  call void @llvm.lifetime.end.p0(i64 1024, ptr %9) #9
  call void @llvm.lifetime.end.p0(i64 1024, ptr %8) #9
  call void @llvm.lifetime.end.p0(i64 8, ptr %7) #9
  call void @llvm.lifetime.end.p0(i64 8, ptr %6) #9
  call void @llvm.lifetime.end.p0(i64 4, ptr %5) #9
  ret i32 %176
}