; Function Attrs: nounwind uwtable
define internal i32 @dir_close(ptr noundef %0, i32 noundef %1) #0 {
  %3 = alloca [1024 x i8], align 16
  %4 = alloca [1024 x i8], align 16
  %5 = load ptr, ptr %0, align 8
  call void @llvm.lifetime.start.p0(i64 1024, ptr nonnull %3) #12
  call void @llvm.lifetime.start.p0(i64 1024, ptr nonnull %4) #12
  %6 = getelementptr inbounds nuw i8, ptr %5, i64 24
  store ptr null, ptr %6, align 8
  %7 = load ptr, ptr %0, align 8
  %8 = getelementptr inbounds nuw i8, ptr %7, i64 32
  store i32 0, ptr %8, align 8
  %9 = load ptr, ptr %0, align 8
  %10 = getelementptr inbounds nuw i8, ptr %9, i64 8
  %11 = load i32, ptr %10, align 8
  %12 = icmp eq i32 %11, 1
  br i1 %12, label %13, label %18

13:                                               ; preds = %2
  %14 = tail call ptr @__errno_location() #14
  store i32 0, ptr %14, align 4
  %15 = getelementptr inbounds nuw i8, ptr %0, i64 48
  %16 = load ptr, ptr %15, align 8
  %17 = tail call i32 @gzclose(ptr noundef %16) #12
  br label %22

18:                                               ; preds = %2
  %19 = getelementptr inbounds nuw i8, ptr %0, i64 24
  %20 = load i32, ptr %19, align 8
  %21 = tail call i32 @close(i32 noundef %20) #12
  br label %22

22:                                               ; preds = %18, %13
  %.0 = phi i32 [ %17, %13 ], [ %21, %18 ]
  %23 = icmp eq i32 %.0, 0
  br i1 %23, label %24, label %.thread

24:                                               ; preds = %22
  switch i32 %1, label %83 [
    i32 0, label %25
    i32 1, label %64
  ]

25:                                               ; preds = %24
  %26 = getelementptr inbounds nuw i8, ptr %0, i64 40
  %27 = load ptr, ptr %26, align 8
  %.not = icmp eq ptr %27, null
  br i1 %.not, label %83, label %28

28:                                               ; preds = %25
  %29 = load ptr, ptr %0, align 8
  %30 = getelementptr inbounds nuw i8, ptr %0, i64 16
  %31 = load ptr, ptr %30, align 8
  %32 = tail call ptr @pg_malloc0(i64 noundef 1024) #12
  %33 = getelementptr inbounds nuw i8, ptr %29, i64 8
  %34 = load i32, ptr %33, align 8
  %35 = icmp eq i32 %34, 1
  %36 = icmp eq i32 %34, 2
  %37 = select i1 %36, ptr @.str.8, ptr @.str.9
  %38 = select i1 %35, ptr @.str.7, ptr %37
  %39 = tail call i32 (ptr, i64, ptr, ...) @pg_snprintf(ptr noundef %32, i64 noundef 1024, ptr noundef nonnull @.str.6, ptr noundef %31, ptr noundef nonnull %38, ptr noundef nonnull %27) #12
  %40 = getelementptr inbounds nuw i8, ptr %5, i64 40
  %41 = load ptr, ptr %40, align 8
  %42 = call i32 (ptr, i64, ptr, ...) @pg_snprintf(ptr noundef nonnull %3, i64 noundef 1024, ptr noundef nonnull @.str.3, ptr noundef %41, ptr noundef %32) #12
  call void @pg_free(ptr noundef %32) #12
  %43 = load ptr, ptr %0, align 8
  %44 = load ptr, ptr %30, align 8
  %45 = call ptr @pg_malloc0(i64 noundef 1024) #12
  %46 = getelementptr inbounds nuw i8, ptr %43, i64 8
  %47 = load i32, ptr %46, align 8
  %48 = icmp eq i32 %47, 1
  %49 = icmp eq i32 %47, 2
  %50 = select i1 %49, ptr @.str.8, ptr @.str.9
  %51 = select i1 %48, ptr @.str.7, ptr %50
  %52 = call i32 (ptr, i64, ptr, ...) @pg_snprintf(ptr noundef %45, i64 noundef 1024, ptr noundef nonnull @.str.6, ptr noundef %44, ptr noundef nonnull %51, ptr noundef nonnull @.str.9) #12
  %53 = load ptr, ptr %40, align 8
  %54 = call i32 (ptr, i64, ptr, ...) @pg_snprintf(ptr noundef nonnull %4, i64 noundef 1024, ptr noundef nonnull @.str.3, ptr noundef %53, ptr noundef %45) #12
  call void @pg_free(ptr noundef %45) #12
  %55 = load ptr, ptr %0, align 8
  %56 = getelementptr inbounds nuw i8, ptr %55, i64 16
  %57 = load i8, ptr %56, align 8, !range !4, !noundef !5
  %58 = trunc nuw i8 %57 to i1
  br i1 %58, label %59, label %61

59:                                               ; preds = %28
  %60 = call i32 @durable_rename(ptr noundef nonnull %3, ptr noundef nonnull %4) #12
  br label %96

61:                                               ; preds = %28
  %62 = call i32 @rename(ptr noundef nonnull %3, ptr noundef nonnull %4) #12
  %.not41 = icmp eq i32 %62, 0
  br i1 %.not41, label %.thread49, label %63

63:                                               ; preds = %61
  call void (i32, i32, ptr, ...) @pg_log_generic(i32 noundef 4, i32 noundef 0, ptr noundef nonnull @.str.5, ptr noundef nonnull %3, ptr noundef nonnull %4) #12
  br label %.thread

64:                                               ; preds = %24
  %65 = load ptr, ptr %0, align 8
  %66 = getelementptr inbounds nuw i8, ptr %0, i64 16
  %67 = load ptr, ptr %66, align 8
  %68 = getelementptr inbounds nuw i8, ptr %0, i64 40
  %69 = load ptr, ptr %68, align 8
  %70 = tail call ptr @pg_malloc0(i64 noundef 1024) #12
  %71 = getelementptr inbounds nuw i8, ptr %65, i64 8
  %72 = load i32, ptr %71, align 8
  %73 = icmp eq i32 %72, 1
  %74 = icmp eq i32 %72, 2
  %75 = select i1 %74, ptr @.str.8, ptr @.str.9
  %76 = select i1 %73, ptr @.str.7, ptr %75
  %.not.i43 = icmp eq ptr %69, null
  %77 = select i1 %.not.i43, ptr @.str.9, ptr %69
  %78 = tail call i32 (ptr, i64, ptr, ...) @pg_snprintf(ptr noundef %70, i64 noundef 1024, ptr noundef nonnull @.str.6, ptr noundef %67, ptr noundef nonnull %76, ptr noundef nonnull %77) #12
  %79 = getelementptr inbounds nuw i8, ptr %5, i64 40
  %80 = load ptr, ptr %79, align 8
  %81 = call i32 (ptr, i64, ptr, ...) @pg_snprintf(ptr noundef nonnull %3, i64 noundef 1024, ptr noundef nonnull @.str.3, ptr noundef %80, ptr noundef %70) #12
  call void @pg_free(ptr noundef %70) #12
  %82 = call i32 @unlink(ptr noundef nonnull %3) #12
  br label %96

83:                                               ; preds = %25, %24
  %84 = load ptr, ptr %0, align 8
  %85 = getelementptr inbounds nuw i8, ptr %84, i64 16
  %86 = load i8, ptr %85, align 8, !range !4, !noundef !5
  %87 = trunc nuw i8 %86 to i1
  br i1 %87, label %88, label %.thread49

88:                                               ; preds = %83
  %89 = getelementptr inbounds nuw i8, ptr %0, i64 32
  %90 = load ptr, ptr %89, align 8
  %91 = tail call i32 @fsync_fname(ptr noundef %90, i1 noundef zeroext false) #12
  %92 = icmp eq i32 %91, 0
  br i1 %92, label %93, label %.thread

93:                                               ; preds = %88
  %94 = load ptr, ptr %89, align 8
  %95 = tail call i32 @fsync_parent_path(ptr noundef %94) #12
  br label %96

96:                                               ; preds = %59, %93, %64
  %.1 = phi i32 [ %82, %64 ], [ %95, %93 ], [ %60, %59 ]
  %.not42 = icmp eq i32 %.1, 0
  br i1 %.not42, label %.thread49, label %.thread

.thread:                                          ; preds = %63, %22, %88, %96
  %.146 = phi i32 [ %.1, %96 ], [ -1, %63 ], [ %.0, %22 ], [ %91, %88 ]
  %97 = tail call ptr @__errno_location() #14
  %98 = load i32, ptr %97, align 4
  %99 = load ptr, ptr %0, align 8
  %100 = getelementptr inbounds nuw i8, ptr %99, i64 32
  store i32 %98, ptr %100, align 8
  br label %.thread49

.thread49:                                        ; preds = %61, %83, %.thread, %96
  %.147 = phi i32 [ %.146, %.thread ], [ 0, %96 ], [ 0, %83 ], [ 0, %61 ]
  %101 = getelementptr inbounds nuw i8, ptr %0, i64 16
  %102 = load ptr, ptr %101, align 8
  call void @pg_free(ptr noundef %102) #12
  %103 = getelementptr inbounds nuw i8, ptr %0, i64 32
  %104 = load ptr, ptr %103, align 8
  call void @pg_free(ptr noundef %104) #12
  %105 = getelementptr inbounds nuw i8, ptr %0, i64 40
  %106 = load ptr, ptr %105, align 8
  call void @pg_free(ptr noundef %106) #12
  call void @pg_free(ptr noundef nonnull %0) #12
  call void @llvm.lifetime.end.p0(i64 1024, ptr nonnull %4) #12
  call void @llvm.lifetime.end.p0(i64 1024, ptr nonnull %3) #12
  ret i32 %.147
}